; Function Attrs: mustprogress uwtable
define noundef i32 @_ZN2mu9ParserInt8IsHexValEPKcPiPd(ptr noundef %0, ptr nocapture noundef %1, ptr nocapture noundef writeonly %2) #1 align 2 personality ptr @__gxx_personality_v0 {
  %4 = alloca i32, align 4
  %5 = alloca %"class.std::__cxx11::basic_stringstream", align 8
  %6 = alloca %"class.std::__cxx11::basic_string", align 8
  %7 = alloca %"class.std::allocator", align 1
  %8 = getelementptr inbounds i8, ptr %0, i64 1
  %9 = load i8, ptr %8, align 1
  %10 = icmp eq i8 %9, 0
  br i1 %10, label %40, label %11

11:                                               ; preds = %3
  %12 = load i8, ptr %0, align 1
  %.not = icmp eq i8 %12, 48
  %.not12 = icmp eq i8 %9, 120
  %or.cond = and i1 %.not12, %.not
  br i1 %or.cond, label %13, label %40

13:                                               ; preds = %11
  store i32 0, ptr %4, align 4
  %14 = getelementptr inbounds i8, ptr %0, i64 2
  call void @_ZNSaIcEC1Ev(ptr noundef nonnull align 1 dereferenceable(1) %7) #12
  invoke void @_ZNSt7__cxx1112basic_stringIcSt11char_traitsIcESaIcEEC1EPKcRKS3_(ptr noundef nonnull align 8 dereferenceable(32) %6, ptr noundef nonnull %14, ptr noundef nonnull align 1 dereferenceable(1) %7)
          to label %15 unwind label %25

15:                                               ; preds = %13
  invoke void @_ZNSt7__cxx1118basic_stringstreamIcSt11char_traitsIcESaIcEEC1ERKNS_12basic_stringIcS2_S3_EESt13_Ios_Openmode(ptr noundef nonnull align 8 dereferenceable(128) %5, ptr noundef nonnull align 8 dereferenceable(32) %6, i32 noundef 24)
          to label %16 unwind label %27

16:                                               ; preds = %15
  call void @_ZNSt7__cxx1112basic_stringIcSt11char_traitsIcESaIcEED1Ev(ptr noundef nonnull align 8 dereferenceable(32) %6) #12
  call void @_ZNSaIcED1Ev(ptr noundef nonnull align 1 dereferenceable(1) %7) #12
  %17 = invoke noundef nonnull align 8 dereferenceable(16) ptr @_ZNSirsEPFRSt8ios_baseS0_E(ptr noundef nonnull align 8 dereferenceable(16) %5, ptr noundef nonnull @_ZSt3hexRSt8ios_base)
          to label %18 unwind label %30

18:                                               ; preds = %16
  %19 = invoke noundef nonnull align 8 dereferenceable(16) ptr @_ZNSirsERj(ptr noundef nonnull align 8 dereferenceable(16) %17, ptr noundef nonnull align 4 dereferenceable(4) %4)
          to label %20 unwind label %30

20:                                               ; preds = %18
  %21 = invoke { i64, i64 } @_ZNSi5tellgEv(ptr noundef nonnull align 8 dereferenceable(16) %5)
          to label %22 unwind label %30

22:                                               ; preds = %20
  %23 = extractvalue { i64, i64 } %21, 0
  %24 = icmp eq i64 %23, 0
  br i1 %24, label %39, label %32

25:                                               ; preds = %13
  %26 = landingpad { ptr, i32 }
          cleanup
  br label %29

27:                                               ; preds = %15
  %28 = landingpad { ptr, i32 }
          cleanup
  call void @_ZNSt7__cxx1112basic_stringIcSt11char_traitsIcESaIcEED1Ev(ptr noundef nonnull align 8 dereferenceable(32) %6) #12
  br label %29

29:                                               ; preds = %27, %25
  %.pn = phi { ptr, i32 } [ %28, %27 ], [ %26, %25 ]
  call void @_ZNSaIcED1Ev(ptr noundef nonnull align 1 dereferenceable(1) %7) #12
  br label %41

30:                                               ; preds = %20, %18, %16
  %31 = landingpad { ptr, i32 }
          cleanup
  call void @_ZNSt7__cxx1118basic_stringstreamIcSt11char_traitsIcESaIcEED1Ev(ptr noundef nonnull align 8 dereferenceable(128) %5) #12
  br label %41

32:                                               ; preds = %22
  %33 = trunc i64 %23 to i32
  %34 = add i32 %33, 2
  %35 = load i32, ptr %1, align 4
  %36 = add nsw i32 %34, %35
  store i32 %36, ptr %1, align 4
  %37 = load i32, ptr %4, align 4
  %38 = uitofp i32 %37 to double
  store double %38, ptr %2, align 8
  br label %39

39:                                               ; preds = %22, %32
  call void @_ZNSt7__cxx1118basic_stringstreamIcSt11char_traitsIcESaIcEED1Ev(ptr noundef nonnull align 8 dereferenceable(128) %5) #12
  br label %40

40:                                               ; preds = %3, %11, %39
  %.1 = phi i32 [ 1, %39 ], [ 0, %11 ], [ 0, %3 ]
  ret i32 %.1

41:                                               ; preds = %30, %29
  %.pn14 = phi { ptr, i32 } [ %31, %30 ], [ %.pn, %29 ]
  resume { ptr, i32 } %.pn14
}